; Function Attrs: mustprogress nounwind uwtable
define hidden void @_ZN9CodeCache15old_nmethods_doEP15MetadataClosure(ptr noundef %0) local_unnamed_addr #1 align 2 {
  %2 = load ptr, ptr @_ZL17old_nmethod_table, align 8
  %.not = icmp eq ptr %2, null
  br i1 %.not, label %.loopexit, label %3

3:                                                ; preds = %1
  %4 = load i32, ptr %2, align 4
  %5 = icmp sgt i32 %4, 0
  br i1 %5, label %.lr.ph.preheader, label %.loopexit

.lr.ph.preheader:                                 ; preds = %3
  %wide.trip.count = zext nneg i32 %4 to i64
  br label %.lr.ph

.lr.ph:                                           ; preds = %.lr.ph.preheader, %.lr.ph
  %indvars.iv = phi i64 [ 0, %.lr.ph.preheader ], [ %indvars.iv.next, %.lr.ph ]
  %6 = load ptr, ptr @_ZL17old_nmethod_table, align 8
  %7 = getelementptr inbounds i8, ptr %6, i64 8
  %8 = load ptr, ptr %7, align 8
  %9 = getelementptr inbounds ptr, ptr %8, i64 %indvars.iv
  %10 = load ptr, ptr %9, align 8
  tail call void @_ZN7nmethod11metadata_doEP15MetadataClosure(ptr noundef nonnull align 8 dereferenceable(214) %10, ptr noundef %0) #20
  %indvars.iv.next = add nuw nsw i64 %indvars.iv, 1
  %exitcond.not = icmp eq i64 %indvars.iv.next, %wide.trip.count
  br i1 %exitcond.not, label %.loopexit, label %.lr.ph, !llvm.loop !57

.loopexit:                                        ; preds = %.lr.ph, %3, %1
  %.05 = phi i32 [ 0, %1 ], [ %4, %3 ], [ %4, %.lr.ph ]
  %11 = load volatile ptr, ptr getelementptr inbounds (i8, ptr @_ZN16LogTagSetMappingILN6LogTag4typeE125ELS1_16ELS1_94ELS1_0ELS1_0ELS1_0EE7_tagsetE, i64 56), align 8
  %.not8 = icmp eq ptr %11, null
  br i1 %.not8, label %13, label %12

12:                                               ; preds = %.loopexit
  tail call void (ptr, ...) @_ZN7LogImplILN6LogTag4typeE125ELS1_16ELS1_94ELS1_0ELS1_0ELS1_0EE5writeILN8LogLevel4typeE2EEEvPKcz(ptr noundef nonnull @.str.46, i32 noundef %.05)
  br label %13

13:                                               ; preds = %.loopexit, %12
  ret void
}